; ModuleID = '31/134.c'
source_filename = "31/134.c"
target datalayout = "e-m:e-p270:32:32-p271:32:32-p272:64:64-i64:64-f80:128-n8:16:32:64-S128"
target triple = "x86_64-pc-linux-gnu"

%struct.student = type { [100 x i8], %struct.student* }

@n = common dso_local global i32 0, align 4
@.str = private unnamed_addr constant [4 x i8] c"end\00", align 1
@.str.1 = private unnamed_addr constant [2 x i8] c"\0A\00", align 1

; Function Attrs: noinline nounwind uwtable
define dso_local %struct.student* @creat() #0 {
  %1 = alloca %struct.student*, align 8
  %2 = alloca %struct.student*, align 8
  %3 = alloca %struct.student*, align 8
  store i32 0, i32* @n, align 4
  %4 = call noalias i8* @malloc(i64 100) #4
  %5 = bitcast i8* %4 to %struct.student*
  store %struct.student* %5, %struct.student** %3, align 8
  store %struct.student* %5, %struct.student** %2, align 8
  %6 = load %struct.student*, %struct.student** %2, align 8
  %7 = getelementptr inbounds %struct.student, %struct.student* %6, i32 0, i32 0
  %8 = getelementptr inbounds [100 x i8], [100 x i8]* %7, i64 0, i64 0
  %9 = call i32 (i8*, ...) bitcast (i32 (...)* @gets to i32 (i8*, ...)*)(i8* %8)
  br label %10

10:                                               ; preds = %28, %0
  %11 = load %struct.student*, %struct.student** %2, align 8
  %12 = getelementptr inbounds %struct.student, %struct.student* %11, i32 0, i32 0
  %13 = getelementptr inbounds [100 x i8], [100 x i8]* %12, i64 0, i64 0
  %14 = call i32 @strcmp(i8* %13, i8* getelementptr inbounds ([4 x i8], [4 x i8]* @.str, i64 0, i64 0)) #5
  %15 = icmp ne i32 %14, 0
  br i1 %15, label %16, label %36

16:                                               ; preds = %10
  %17 = load i32, i32* @n, align 4
  %18 = add nsw i32 %17, 1
  store i32 %18, i32* @n, align 4
  %19 = load i32, i32* @n, align 4
  %20 = icmp eq i32 %19, 1
  br i1 %20, label %21, label %24

21:                                               ; preds = %16
  %22 = load %struct.student*, %struct.student** %2, align 8
  %23 = getelementptr inbounds %struct.student, %struct.student* %22, i32 0, i32 1
  store %struct.student* null, %struct.student** %23, align 8
  br label %28

24:                                               ; preds = %16
  %25 = load %struct.student*, %struct.student** %3, align 8
  %26 = load %struct.student*, %struct.student** %2, align 8
  %27 = getelementptr inbounds %struct.student, %struct.student* %26, i32 0, i32 1
  store %struct.student* %25, %struct.student** %27, align 8
  br label %28

28:                                               ; preds = %24, %21
  %29 = load %struct.student*, %struct.student** %2, align 8
  store %struct.student* %29, %struct.student** %3, align 8
  %30 = call noalias i8* @malloc(i64 100) #4
  %31 = bitcast i8* %30 to %struct.student*
  store %struct.student* %31, %struct.student** %2, align 8
  %32 = load %struct.student*, %struct.student** %2, align 8
  %33 = getelementptr inbounds %struct.student, %struct.student* %32, i32 0, i32 0
  %34 = getelementptr inbounds [100 x i8], [100 x i8]* %33, i64 0, i64 0
  %35 = call i32 (i8*, ...) bitcast (i32 (...)* @gets to i32 (i8*, ...)*)(i8* %34)
  br label %10

36:                                               ; preds = %10
  %37 = load %struct.student*, %struct.student** %3, align 8
  store %struct.student* %37, %struct.student** %1, align 8
  %38 = load %struct.student*, %struct.student** %1, align 8
  ret %struct.student* %38
}

; Function Attrs: nounwind
declare dso_local noalias i8* @malloc(i64) #1

declare dso_local i32 @gets(...) #2

; Function Attrs: nounwind readonly
declare dso_local i32 @strcmp(i8*, i8*) #3

; Function Attrs: noinline nounwind uwtable
define dso_local void @print(%struct.student* %0) #0 {
  %2 = alloca %struct.student*, align 8
  %3 = alloca %struct.student*, align 8
  store %struct.student* %0, %struct.student** %2, align 8
  %4 = load %struct.student*, %struct.student** %2, align 8
  store %struct.student* %4, %struct.student** %3, align 8
  %5 = load %struct.student*, %struct.student** %2, align 8
  %6 = icmp ne %struct.student* %5, null
  br i1 %6, label %7, label %32

7:                                                ; preds = %1
  br label %8

8:                                                ; preds = %28, %7
  %9 = load %struct.student*, %struct.student** %3, align 8
  %10 = getelementptr inbounds %struct.student, %struct.student* %9, i32 0, i32 1
  %11 = load %struct.student*, %struct.student** %10, align 8
  %12 = icmp ne %struct.student* %11, null
  br i1 %12, label %13, label %19

13:                                               ; preds = %8
  %14 = load %struct.student*, %struct.student** %3, align 8
  %15 = getelementptr inbounds %struct.student, %struct.student* %14, i32 0, i32 0
  %16 = getelementptr inbounds [100 x i8], [100 x i8]* %15, i64 0, i64 0
  %17 = call i32 (i8*, ...) @printf(i8* %16)
  %18 = call i32 (i8*, ...) @printf(i8* getelementptr inbounds ([2 x i8], [2 x i8]* @.str.1, i64 0, i64 0))
  br label %24

19:                                               ; preds = %8
  %20 = load %struct.student*, %struct.student** %3, align 8
  %21 = getelementptr inbounds %struct.student, %struct.student* %20, i32 0, i32 0
  %22 = getelementptr inbounds [100 x i8], [100 x i8]* %21, i64 0, i64 0
  %23 = call i32 (i8*, ...) @printf(i8* %22)
  br label %24

24:                                               ; preds = %19, %13
  %25 = load %struct.student*, %struct.student** %3, align 8
  %26 = getelementptr inbounds %struct.student, %struct.student* %25, i32 0, i32 1
  %27 = load %struct.student*, %struct.student** %26, align 8
  store %struct.student* %27, %struct.student** %3, align 8
  br label %28

28:                                               ; preds = %24
  %29 = load %struct.student*, %struct.student** %3, align 8
  %30 = icmp ne %struct.student* %29, null
  br i1 %30, label %8, label %31

31:                                               ; preds = %28
  br label %32

32:                                               ; preds = %31, %1
  ret void
}

declare dso_local i32 @printf(i8*, ...) #2

; Function Attrs: noinline nounwind uwtable
define dso_local void @main() #0 {
  %1 = alloca %struct.student*, align 8
  %2 = call %struct.student* @creat()
  store %struct.student* %2, %struct.student** %1, align 8
  %3 = load %struct.student*, %struct.student** %1, align 8
  call void @print(%struct.student* %3)
  ret void
}


!llvm.module.flags = !{!0}
!llvm.ident = !{!1}

!0 = !{i32 1, !"wchar_size", i32 4}
!1 = !{!"clang version 10.0.0-4ubuntu1 "}
