; ModuleID = 'source-C-CXX/30/134.c'
source_filename = "source-C-CXX/30/134.c"
target datalayout = "e-m:e-p270:32:32-p271:32:32-p272:64:64-i64:64-f80:128-n8:16:32:64-S128"
target triple = "x86_64-pc-linux-gnu"

%struct.student = type { [100 x i8], %struct.student* }

@n = dso_local local_unnamed_addr global i32 0, align 4
@.str = private unnamed_addr constant [4 x i8] c"end\00", align 1

; Function Attrs: nounwind sspstrong uwtable
define dso_local %struct.student* @creat() local_unnamed_addr #0 {
  store i32 0, i32* @n, align 4, !tbaa !5
  %1 = tail call noalias align 16 dereferenceable_or_null(100) i8* @malloc(i64 100) #7
  %2 = bitcast i8* %1 to %struct.student*
  %3 = getelementptr inbounds %struct.student, %struct.student* %2, i64 0, i32 0, i64 0
  %4 = tail call i32 (i8*, ...) bitcast (i32 (...)* @gets to i32 (i8*, ...)*)(i8* %3) #7
  %5 = tail call i32 @strcmp(i8* noundef nonnull dereferenceable(1) %3, i8* noundef nonnull dereferenceable(4) getelementptr inbounds ([4 x i8], [4 x i8]* @.str, i64 0, i64 0)) #8
  %6 = icmp eq i32 %5, 0
  br i1 %6, label %21, label %7

7:                                                ; preds = %0, %7
  %8 = phi %struct.student* [ %9, %7 ], [ %2, %0 ]
  %9 = phi %struct.student* [ %16, %7 ], [ %2, %0 ]
  %10 = load i32, i32* @n, align 4, !tbaa !5
  %11 = add nsw i32 %10, 1
  store i32 %11, i32* @n, align 4, !tbaa !5
  %12 = icmp eq i32 %10, 0
  %13 = select i1 %12, %struct.student* null, %struct.student* %8
  %14 = getelementptr inbounds %struct.student, %struct.student* %9, i64 0, i32 1
  store %struct.student* %13, %struct.student** %14, align 8
  %15 = tail call noalias align 16 dereferenceable_or_null(100) i8* @malloc(i64 100) #7
  %16 = bitcast i8* %15 to %struct.student*
  %17 = getelementptr inbounds %struct.student, %struct.student* %16, i64 0, i32 0, i64 0
  %18 = tail call i32 (i8*, ...) bitcast (i32 (...)* @gets to i32 (i8*, ...)*)(i8* %17) #7
  %19 = tail call i32 @strcmp(i8* noundef nonnull dereferenceable(1) %17, i8* noundef nonnull dereferenceable(4) getelementptr inbounds ([4 x i8], [4 x i8]* @.str, i64 0, i64 0)) #8
  %20 = icmp eq i32 %19, 0
  br i1 %20, label %21, label %7, !llvm.loop !9

21:                                               ; preds = %7, %0
  %22 = phi %struct.student* [ %2, %0 ], [ %9, %7 ]
  ret %struct.student* %22
}

; Function Attrs: inaccessiblememonly mustprogress nofree nounwind willreturn
declare noalias noundef align 16 i8* @malloc(i64 noundef) local_unnamed_addr #1

declare i32 @gets(...) local_unnamed_addr #2

; Function Attrs: argmemonly mustprogress nofree nounwind readonly willreturn
declare i32 @strcmp(i8* nocapture, i8* nocapture) local_unnamed_addr #3

; Function Attrs: nofree nounwind sspstrong uwtable
define dso_local void @print(%struct.student* readonly %0) local_unnamed_addr #4 {
  %2 = icmp eq %struct.student* %0, null
  br i1 %2, label %15, label %3

3:                                                ; preds = %1, %12
  %4 = phi %struct.student* [ %13, %12 ], [ %0, %1 ]
  %5 = getelementptr inbounds %struct.student, %struct.student* %4, i64 0, i32 1
  %6 = load %struct.student*, %struct.student** %5, align 8, !tbaa !11
  %7 = icmp eq %struct.student* %6, null
  %8 = getelementptr inbounds %struct.student, %struct.student* %4, i64 0, i32 0, i64 0
  %9 = tail call i32 (i8*, ...) @printf(i8* nonnull dereferenceable(1) %8)
  br i1 %7, label %12, label %10

10:                                               ; preds = %3
  %11 = tail call i32 @putchar(i32 10)
  br label %12

12:                                               ; preds = %3, %10
  %13 = load %struct.student*, %struct.student** %5, align 8, !tbaa !11
  %14 = icmp eq %struct.student* %13, null
  br i1 %14, label %15, label %3, !llvm.loop !14

15:                                               ; preds = %12, %1
  ret void
}

; Function Attrs: nofree nounwind
declare noundef i32 @printf(i8* nocapture noundef readonly, ...) local_unnamed_addr #5

; Function Attrs: nounwind sspstrong uwtable
define dso_local void @main() local_unnamed_addr #0 {
  store i32 0, i32* @n, align 4, !tbaa !5
  %1 = tail call noalias align 16 dereferenceable_or_null(100) i8* @malloc(i64 100) #7
  %2 = bitcast i8* %1 to %struct.student*
  %3 = getelementptr inbounds %struct.student, %struct.student* %2, i64 0, i32 0, i64 0
  %4 = tail call i32 (i8*, ...) bitcast (i32 (...)* @gets to i32 (i8*, ...)*)(i8* %3) #7
  %5 = tail call i32 @strcmp(i8* noundef nonnull dereferenceable(1) %3, i8* noundef nonnull dereferenceable(4) getelementptr inbounds ([4 x i8], [4 x i8]* @.str, i64 0, i64 0)) #8
  %6 = icmp eq i32 %5, 0
  br i1 %6, label %21, label %7

7:                                                ; preds = %0, %7
  %8 = phi %struct.student* [ %9, %7 ], [ %2, %0 ]
  %9 = phi %struct.student* [ %16, %7 ], [ %2, %0 ]
  %10 = load i32, i32* @n, align 4, !tbaa !5
  %11 = add nsw i32 %10, 1
  store i32 %11, i32* @n, align 4, !tbaa !5
  %12 = icmp eq i32 %10, 0
  %13 = select i1 %12, %struct.student* null, %struct.student* %8
  %14 = getelementptr inbounds %struct.student, %struct.student* %9, i64 0, i32 1
  store %struct.student* %13, %struct.student** %14, align 8
  %15 = tail call noalias align 16 dereferenceable_or_null(100) i8* @malloc(i64 100) #7
  %16 = bitcast i8* %15 to %struct.student*
  %17 = getelementptr inbounds %struct.student, %struct.student* %16, i64 0, i32 0, i64 0
  %18 = tail call i32 (i8*, ...) bitcast (i32 (...)* @gets to i32 (i8*, ...)*)(i8* %17) #7
  %19 = tail call i32 @strcmp(i8* noundef nonnull dereferenceable(1) %17, i8* noundef nonnull dereferenceable(4) getelementptr inbounds ([4 x i8], [4 x i8]* @.str, i64 0, i64 0)) #8
  %20 = icmp eq i32 %19, 0
  br i1 %20, label %23, label %7, !llvm.loop !9

21:                                               ; preds = %0
  %22 = icmp eq i8* %1, null
  br i1 %22, label %37, label %23

23:                                               ; preds = %7, %21
  %24 = phi %struct.student* [ %2, %21 ], [ %9, %7 ]
  br label %25

25:                                               ; preds = %23, %34
  %26 = phi %struct.student* [ %35, %34 ], [ %24, %23 ]
  %27 = getelementptr inbounds %struct.student, %struct.student* %26, i64 0, i32 1
  %28 = load %struct.student*, %struct.student** %27, align 8, !tbaa !11
  %29 = icmp eq %struct.student* %28, null
  %30 = getelementptr inbounds %struct.student, %struct.student* %26, i64 0, i32 0, i64 0
  %31 = tail call i32 (i8*, ...) @printf(i8* nonnull dereferenceable(1) %30) #7
  br i1 %29, label %34, label %32

32:                                               ; preds = %25
  %33 = tail call i32 @putchar(i32 10) #7
  br label %34

34:                                               ; preds = %32, %25
  %35 = load %struct.student*, %struct.student** %27, align 8, !tbaa !11
  %36 = icmp eq %struct.student* %35, null
  br i1 %36, label %37, label %25, !llvm.loop !14

37:                                               ; preds = %34, %21
  ret void
}

; Function Attrs: nofree nounwind
declare noundef i32 @putchar(i32 noundef) local_unnamed_addr #6


!llvm.module.flags = !{!0, !1, !2, !3}
!llvm.ident = !{!4}

!0 = !{i32 1, !"wchar_size", i32 4}
!1 = !{i32 7, !"PIC Level", i32 2}
!2 = !{i32 7, !"PIE Level", i32 2}
!3 = !{i32 7, !"uwtable", i32 1}
!4 = !{!"clang version 13.0.0"}
!5 = !{!6, !6, i64 0}
!6 = !{!"int", !7, i64 0}
!7 = !{!"omnipotent char", !8, i64 0}
!8 = !{!"Simple C/C++ TBAA"}
!9 = distinct !{!9, !10}
!10 = !{!"llvm.loop.mustprogress"}
!11 = !{!12, !13, i64 104}
!12 = !{!"student", !7, i64 0, !13, i64 104}
!13 = !{!"any pointer", !7, i64 0}
!14 = distinct !{!14, !10}
